target datalayout = "e-m:e-p270:32:32-p271:32:32-p272:64:64-i64:64-f80:128-n8:16:32:64-S128"
target triple = "x86_64-pc-linux-gnu"

@.str = private unnamed_addr constant [6 x i8] c"%d %d\00", align 1
@.str.1 = private unnamed_addr constant [4 x i8] c"%d \00", align 1
@.str.2 = private unnamed_addr constant [3 x i8] c"%d\00", align 1
@.str.3 = private unnamed_addr constant [2 x i8] c"\0A\00", align 1

; Function Attrs: noinline nounwind uwtable
define dso_local i32 @main() #0 {
  %1 = alloca i32, align 4
  %2 = alloca i32, align 4
  %3 = alloca i32, align 4
  %4 = alloca i32, align 4
  %5 = alloca i32, align 4
  %6 = alloca i32, align 4
  %7 = alloca i32, align 4
  %8 = alloca i32, align 4
  %9 = alloca [11 x [11 x i32]], align 16
  %10 = alloca [11 x [11 x i32]], align 16
  store i32 0, i32* %1, align 4
  %11 = call i32 (i8*, ...) @__isoc99_scanf(i8* getelementptr inbounds ([6 x i8], [6 x i8]* @.str, i64 0, i64 0), i32* %2, i32* %3)
  store i32 0, i32* %4, align 4
  br label %12

12:                                               ; preds = %30, %0
  %13 = load i32, i32* %4, align 4
  %14 = icmp slt i32 %13, 11
  br i1 %14, label %15, label %33

15:                                               ; preds = %12
  store i32 0, i32* %5, align 4
  br label %16

16:                                               ; preds = %26, %15
  %17 = load i32, i32* %5, align 4
  %18 = icmp slt i32 %17, 11
  br i1 %18, label %19, label %29

19:                                               ; preds = %16
  %20 = load i32, i32* %4, align 4
  %21 = sext i32 %20 to i64
  %22 = getelementptr inbounds [11 x [11 x i32]], [11 x [11 x i32]]* %9, i64 0, i64 %21
  %23 = load i32, i32* %5, align 4
  %24 = sext i32 %23 to i64
  %25 = getelementptr inbounds [11 x i32], [11 x i32]* %22, i64 0, i64 %24
  store i32 0, i32* %25, align 4
  br label %26

26:                                               ; preds = %19
  %27 = load i32, i32* %5, align 4
  %28 = add nsw i32 %27, 1
  store i32 %28, i32* %5, align 4
  br label %16

29:                                               ; preds = %16
  br label %30

30:                                               ; preds = %29
  %31 = load i32, i32* %4, align 4
  %32 = add nsw i32 %31, 1
  store i32 %32, i32* %4, align 4
  br label %12

33:                                               ; preds = %12
  %34 = load i32, i32* %2, align 4
  %35 = getelementptr inbounds [11 x [11 x i32]], [11 x [11 x i32]]* %9, i64 0, i64 5
  %36 = getelementptr inbounds [11 x i32], [11 x i32]* %35, i64 0, i64 5
  store i32 %34, i32* %36, align 4
  store i32 1, i32* %6, align 4
  br label %37

37:                                               ; preds = %177, %33
  %38 = load i32, i32* %6, align 4
  %39 = load i32, i32* %3, align 4
  %40 = icmp sle i32 %38, %39
  br i1 %40, label %41, label %180

41:                                               ; preds = %37
  store i32 0, i32* %7, align 4
  br label %42

42:                                               ; preds = %67, %41
  %43 = load i32, i32* %7, align 4
  %44 = icmp slt i32 %43, 11
  br i1 %44, label %45, label %70

45:                                               ; preds = %42
  store i32 0, i32* %8, align 4
  br label %46

46:                                               ; preds = %63, %45
  %47 = load i32, i32* %8, align 4
  %48 = icmp slt i32 %47, 11
  br i1 %48, label %49, label %66

49:                                               ; preds = %46
  %50 = load i32, i32* %7, align 4
  %51 = sext i32 %50 to i64
  %52 = getelementptr inbounds [11 x [11 x i32]], [11 x [11 x i32]]* %9, i64 0, i64 %51
  %53 = load i32, i32* %8, align 4
  %54 = sext i32 %53 to i64
  %55 = getelementptr inbounds [11 x i32], [11 x i32]* %52, i64 0, i64 %54
  %56 = load i32, i32* %55, align 4
  %57 = load i32, i32* %7, align 4
  %58 = sext i32 %57 to i64
  %59 = getelementptr inbounds [11 x [11 x i32]], [11 x [11 x i32]]* %10, i64 0, i64 %58
  %60 = load i32, i32* %8, align 4
  %61 = sext i32 %60 to i64
  %62 = getelementptr inbounds [11 x i32], [11 x i32]* %59, i64 0, i64 %61
  store i32 %56, i32* %62, align 4
  br label %63

63:                                               ; preds = %49
  %64 = load i32, i32* %8, align 4
  %65 = add nsw i32 %64, 1
  store i32 %65, i32* %8, align 4
  br label %46

66:                                               ; preds = %46
  br label %67

67:                                               ; preds = %66
  %68 = load i32, i32* %7, align 4
  %69 = add nsw i32 %68, 1
  store i32 %69, i32* %7, align 4
  br label %42

70:                                               ; preds = %42
  store i32 1, i32* %4, align 4
  br label %71

71:                                               ; preds = %173, %70
  %72 = load i32, i32* %4, align 4
  %73 = icmp slt i32 %72, 10
  br i1 %73, label %74, label %176

74:                                               ; preds = %71
  store i32 1, i32* %5, align 4
  br label %75

75:                                               ; preds = %169, %74
  %76 = load i32, i32* %5, align 4
  %77 = icmp slt i32 %76, 10
  br i1 %77, label %78, label %172

78:                                               ; preds = %75
  %79 = load i32, i32* %4, align 4
  %80 = sext i32 %79 to i64
  %81 = getelementptr inbounds [11 x [11 x i32]], [11 x [11 x i32]]* %10, i64 0, i64 %80
  %82 = load i32, i32* %5, align 4
  %83 = sext i32 %82 to i64
  %84 = getelementptr inbounds [11 x i32], [11 x i32]* %81, i64 0, i64 %83
  %85 = load i32, i32* %84, align 4
  %86 = mul nsw i32 2, %85
  %87 = load i32, i32* %4, align 4
  %88 = add nsw i32 %87, 1
  %89 = sext i32 %88 to i64
  %90 = getelementptr inbounds [11 x [11 x i32]], [11 x [11 x i32]]* %10, i64 0, i64 %89
  %91 = load i32, i32* %5, align 4
  %92 = sext i32 %91 to i64
  %93 = getelementptr inbounds [11 x i32], [11 x i32]* %90, i64 0, i64 %92
  %94 = load i32, i32* %93, align 4
  %95 = add nsw i32 %86, %94
  %96 = load i32, i32* %4, align 4
  %97 = sext i32 %96 to i64
  %98 = getelementptr inbounds [11 x [11 x i32]], [11 x [11 x i32]]* %10, i64 0, i64 %97
  %99 = load i32, i32* %5, align 4
  %100 = add nsw i32 %99, 1
  %101 = sext i32 %100 to i64
  %102 = getelementptr inbounds [11 x i32], [11 x i32]* %98, i64 0, i64 %101
  %103 = load i32, i32* %102, align 4
  %104 = add nsw i32 %95, %103
  %105 = load i32, i32* %4, align 4
  %106 = sub nsw i32 %105, 1
  %107 = sext i32 %106 to i64
  %108 = getelementptr inbounds [11 x [11 x i32]], [11 x [11 x i32]]* %10, i64 0, i64 %107
  %109 = load i32, i32* %5, align 4
  %110 = sext i32 %109 to i64
  %111 = getelementptr inbounds [11 x i32], [11 x i32]* %108, i64 0, i64 %110
  %112 = load i32, i32* %111, align 4
  %113 = add nsw i32 %104, %112
  %114 = load i32, i32* %4, align 4
  %115 = sext i32 %114 to i64
  %116 = getelementptr inbounds [11 x [11 x i32]], [11 x [11 x i32]]* %10, i64 0, i64 %115
  %117 = load i32, i32* %5, align 4
  %118 = sub nsw i32 %117, 1
  %119 = sext i32 %118 to i64
  %120 = getelementptr inbounds [11 x i32], [11 x i32]* %116, i64 0, i64 %119
  %121 = load i32, i32* %120, align 4
  %122 = add nsw i32 %113, %121
  %123 = load i32, i32* %4, align 4
  %124 = add nsw i32 %123, 1
  %125 = sext i32 %124 to i64
  %126 = getelementptr inbounds [11 x [11 x i32]], [11 x [11 x i32]]* %10, i64 0, i64 %125
  %127 = load i32, i32* %5, align 4
  %128 = add nsw i32 %127, 1
  %129 = sext i32 %128 to i64
  %130 = getelementptr inbounds [11 x i32], [11 x i32]* %126, i64 0, i64 %129
  %131 = load i32, i32* %130, align 4
  %132 = add nsw i32 %122, %131
  %133 = load i32, i32* %4, align 4
  %134 = sub nsw i32 %133, 1
  %135 = sext i32 %134 to i64
  %136 = getelementptr inbounds [11 x [11 x i32]], [11 x [11 x i32]]* %10, i64 0, i64 %135
  %137 = load i32, i32* %5, align 4
  %138 = add nsw i32 %137, 1
  %139 = sext i32 %138 to i64
  %140 = getelementptr inbounds [11 x i32], [11 x i32]* %136, i64 0, i64 %139
  %141 = load i32, i32* %140, align 4
  %142 = add nsw i32 %132, %141
  %143 = load i32, i32* %4, align 4
  %144 = sub nsw i32 %143, 1
  %145 = sext i32 %144 to i64
  %146 = getelementptr inbounds [11 x [11 x i32]], [11 x [11 x i32]]* %10, i64 0, i64 %145
  %147 = load i32, i32* %5, align 4
  %148 = sub nsw i32 %147, 1
  %149 = sext i32 %148 to i64
  %150 = getelementptr inbounds [11 x i32], [11 x i32]* %146, i64 0, i64 %149
  %151 = load i32, i32* %150, align 4
  %152 = add nsw i32 %142, %151
  %153 = load i32, i32* %4, align 4
  %154 = add nsw i32 %153, 1
  %155 = sext i32 %154 to i64
  %156 = getelementptr inbounds [11 x [11 x i32]], [11 x [11 x i32]]* %10, i64 0, i64 %155
  %157 = load i32, i32* %5, align 4
  %158 = sub nsw i32 %157, 1
  %159 = sext i32 %158 to i64
  %160 = getelementptr inbounds [11 x i32], [11 x i32]* %156, i64 0, i64 %159
  %161 = load i32, i32* %160, align 4
  %162 = add nsw i32 %152, %161
  %163 = load i32, i32* %4, align 4
  %164 = sext i32 %163 to i64
  %165 = getelementptr inbounds [11 x [11 x i32]], [11 x [11 x i32]]* %9, i64 0, i64 %164
  %166 = load i32, i32* %5, align 4
  %167 = sext i32 %166 to i64
  %168 = getelementptr inbounds [11 x i32], [11 x i32]* %165, i64 0, i64 %167
  store i32 %162, i32* %168, align 4
  br label %169

169:                                              ; preds = %78
  %170 = load i32, i32* %5, align 4
  %171 = add nsw i32 %170, 1
  store i32 %171, i32* %5, align 4
  br label %75

172:                                              ; preds = %75
  br label %173

173:                                              ; preds = %172
  %174 = load i32, i32* %4, align 4
  %175 = add nsw i32 %174, 1
  store i32 %175, i32* %4, align 4
  br label %71

176:                                              ; preds = %71
  br label %177

177:                                              ; preds = %176
  %178 = load i32, i32* %6, align 4
  %179 = add nsw i32 %178, 1
  store i32 %179, i32* %6, align 4
  br label %37

180:                                              ; preds = %37
  store i32 1, i32* %4, align 4
  br label %181

181:                                              ; preds = %215, %180
  %182 = load i32, i32* %4, align 4
  %183 = icmp slt i32 %182, 10
  br i1 %183, label %184, label %218

184:                                              ; preds = %181
  store i32 1, i32* %5, align 4
  br label %185

185:                                              ; preds = %210, %184
  %186 = load i32, i32* %5, align 4
  %187 = icmp slt i32 %186, 10
  br i1 %187, label %188, label %213

188:                                              ; preds = %185
  %189 = load i32, i32* %5, align 4
  %190 = icmp ne i32 %189, 9
  br i1 %190, label %191, label %200

191:                                              ; preds = %188
  %192 = load i32, i32* %4, align 4
  %193 = sext i32 %192 to i64
  %194 = getelementptr inbounds [11 x [11 x i32]], [11 x [11 x i32]]* %9, i64 0, i64 %193
  %195 = load i32, i32* %5, align 4
  %196 = sext i32 %195 to i64
  %197 = getelementptr inbounds [11 x i32], [11 x i32]* %194, i64 0, i64 %196
  %198 = load i32, i32* %197, align 4
  %199 = call i32 (i8*, ...) @printf(i8* getelementptr inbounds ([4 x i8], [4 x i8]* @.str.1, i64 0, i64 0), i32 %198)
  br label %209

200:                                              ; preds = %188
  %201 = load i32, i32* %4, align 4
  %202 = sext i32 %201 to i64
  %203 = getelementptr inbounds [11 x [11 x i32]], [11 x [11 x i32]]* %9, i64 0, i64 %202
  %204 = load i32, i32* %5, align 4
  %205 = sext i32 %204 to i64
  %206 = getelementptr inbounds [11 x i32], [11 x i32]* %203, i64 0, i64 %205
  %207 = load i32, i32* %206, align 4
  %208 = call i32 (i8*, ...) @printf(i8* getelementptr inbounds ([3 x i8], [3 x i8]* @.str.2, i64 0, i64 0), i32 %207)
  br label %209

209:                                              ; preds = %200, %191
  br label %210

210:                                              ; preds = %209
  %211 = load i32, i32* %5, align 4
  %212 = add nsw i32 %211, 1
  store i32 %212, i32* %5, align 4
  br label %185

213:                                              ; preds = %185
  %214 = call i32 (i8*, ...) @printf(i8* getelementptr inbounds ([2 x i8], [2 x i8]* @.str.3, i64 0, i64 0))
  br label %215

215:                                              ; preds = %213
  %216 = load i32, i32* %4, align 4
  %217 = add nsw i32 %216, 1
  store i32 %217, i32* %4, align 4
  br label %181

218:                                              ; preds = %181
  %219 = load i32, i32* %1, align 4
  ret i32 %219
}